; Function Attrs: nounwind uwtable
define noalias noundef ptr @Kit_TruthStatsArray(ptr noundef %0, i32 noundef %1, i32 noundef %2) local_unnamed_addr #8 {
  %4 = sext i32 %2 to i64
  %5 = tail call noalias ptr @calloc(i64 noundef %4, i64 noundef 4) #23
  %6 = tail call noalias dereferenceable_or_null(16) ptr @malloc(i64 noundef 16) #20
  %7 = getelementptr inbounds nuw i8, ptr %6, i64 4
  store i32 0, ptr %7, align 4, !tbaa !20
  store i32 65536, ptr %6, align 8, !tbaa !23
  %8 = tail call noalias dereferenceable_or_null(262144) ptr @malloc(i64 noundef 262144) #20
  %9 = getelementptr inbounds nuw i8, ptr %6, i64 8
  store ptr %8, ptr %9, align 8, !tbaa !24
  %10 = icmp sgt i32 %2, 0
  br i1 %10, label %.lr.ph, label %._crit_edge

.lr.ph:                                           ; preds = %3
  %11 = tail call i32 @llvm.smax.i32(i32 %1, i32 5)
  %12 = add nsw i32 %11, -5
  %wide.trip.count = zext nneg i32 %2 to i64
  br label %13

13:                                               ; preds = %.lr.ph, %Kit_TruthStats.exit
  %indvars.iv = phi i64 [ 0, %.lr.ph ], [ %indvars.iv.next, %Kit_TruthStats.exit ]
  %14 = trunc nuw nsw i64 %indvars.iv to i32
  %15 = shl i32 %14, %12
  %16 = sext i32 %15 to i64
  %17 = getelementptr inbounds i32, ptr %0, i64 %16
  %18 = tail call i32 @Kit_TruthIsop(ptr noundef %17, i32 noundef %1, ptr noundef nonnull %6, i32 noundef 1) #21
  %19 = icmp eq i32 %18, -1
  br i1 %19, label %Kit_TruthStats.exit, label %20

20:                                               ; preds = %13
  %.val.i.i = load i32, ptr %7, align 4, !tbaa !20
  %21 = icmp sgt i32 %.val.i.i, 65536
  br i1 %21, label %Kit_TruthStats.exit, label %22

22:                                               ; preds = %20
  %23 = tail call ptr @Kit_SopFactor(ptr noundef nonnull %6, i32 noundef %18, i32 noundef %1, ptr noundef nonnull %6) #21
  br label %Kit_TruthStats.exit

Kit_TruthStats.exit:                              ; preds = %13, %20, %22
  %.0.i.i = phi ptr [ %23, %22 ], [ null, %13 ], [ null, %20 ]
  %24 = getelementptr i8, ptr %.0.i.i, i64 4
  %.val.i = load i32, ptr %24, align 4, !tbaa !3
  %25 = getelementptr i8, ptr %.0.i.i, i64 8
  %.val8.i = load i32, ptr %25, align 8, !tbaa !11
  %26 = getelementptr i8, ptr %.0.i.i, i64 16
  %.val10.i = load ptr, ptr %26, align 8, !tbaa !13
  %27 = sext i32 %.val8.i to i64
  %28 = getelementptr inbounds %struct.Kit_Node_t_, ptr %.val10.i, i64 %27
  %29 = getelementptr inbounds i8, ptr %28, i64 -24
  %30 = tail call i32 @Kit_GraphLevelNum_rec(ptr noundef %.0.i.i, ptr noundef nonnull %29)
  tail call void @free(ptr noundef nonnull %.val10.i) #21
  %31 = sub nsw i32 %.val8.i, %.val.i
  tail call void @free(ptr noundef nonnull %.0.i.i) #21
  %32 = shl i32 %30, 16
  %33 = or i32 %32, %31
  %34 = getelementptr inbounds nuw i32, ptr %5, i64 %indvars.iv
  store i32 %33, ptr %34, align 4, !tbaa !16
  %indvars.iv.next = add nuw nsw i64 %indvars.iv, 1
  %exitcond.not = icmp eq i64 %indvars.iv.next, %wide.trip.count
  br i1 %exitcond.not, label %._crit_edge.loopexit, label %13, !llvm.loop !25

._crit_edge.loopexit:                             ; preds = %Kit_TruthStats.exit
  %.pre = load ptr, ptr %9, align 8, !tbaa !24
  br label %._crit_edge

._crit_edge:                                      ; preds = %._crit_edge.loopexit, %3
  %35 = phi ptr [ %.pre, %._crit_edge.loopexit ], [ %8, %3 ]
  %.not.i = icmp eq ptr %35, null
  br i1 %.not.i, label %Vec_IntFree.exit, label %36

36:                                               ; preds = %._crit_edge
  tail call void @free(ptr noundef nonnull %35) #21
  br label %Vec_IntFree.exit

Vec_IntFree.exit:                                 ; preds = %._crit_edge, %36
  tail call void @free(ptr noundef nonnull %6) #21
  ret ptr %5
}